target datalayout = "e-m:e-p270:32:32-p271:32:32-p272:64:64-i64:64-i128:128-f80:128-n8:16:32:64-S128"
target triple = "x86_64-pc-linux-gnu"

%struct.pmix_object_t = type { %union.pthread_mutex_t, ptr, i32, %struct.pmix_tma }
%union.pthread_mutex_t = type { %struct.__pthread_mutex_s }
%struct.__pthread_mutex_s = type { i32, i32, i32, i32, i32, i16, i16, %struct.__pthread_internal_list }
%struct.__pthread_internal_list = type { ptr, ptr }
%struct.pmix_tma = type { ptr, ptr, ptr, ptr, ptr, ptr, ptr, ptr }
%struct.pmix_bfrop_type_info_t = type { %struct.pmix_object_t, i16, ptr, ptr, ptr, ptr, ptr }
%struct.pmix_pointer_array_t = type { %struct.pmix_object_t, i32, i32, i32, i32, i32, ptr, ptr }
%struct.pmix_device_distance = type { ptr, ptr, i64, i16, i16 }

; Function Attrs: inlinehint nounwind uwtable
define internal ptr @pmix_pointer_array_get_item(ptr noundef %0, i32 noundef %1) #3 {
  %3 = alloca ptr, align 8
  %4 = alloca ptr, align 8
  %5 = alloca i32, align 4
  %6 = alloca ptr, align 8
  %7 = alloca i32, align 4
  store ptr %0, ptr %4, align 8, !tbaa !3
  store i32 %1, ptr %5, align 4, !tbaa !9
  call void @llvm.lifetime.start.p0(i64 8, ptr %6) #9
  %8 = load i32, ptr %5, align 4, !tbaa !9
  %9 = icmp sgt i32 0, %8
  br i1 %9, label %16, label %10

10:                                               ; preds = %2
  %11 = load ptr, ptr %4, align 8, !tbaa !3
  %12 = getelementptr inbounds nuw %struct.pmix_pointer_array_t, ptr %11, i32 0, i32 3
  %13 = load i32, ptr %12, align 8, !tbaa !22
  %14 = load i32, ptr %5, align 4, !tbaa !9
  %15 = icmp sle i32 %13, %14
  br label %16

16:                                               ; preds = %10, %2
  %17 = phi i1 [ true, %2 ], [ %15, %10 ]
  %18 = xor i1 %17, true
  %19 = xor i1 %18, true
  %20 = zext i1 %19 to i32
  %21 = sext i32 %20 to i64
  %22 = call i64 @llvm.expect.i64(i64 %21, i64 0)
  %23 = icmp ne i64 %22, 0
  br i1 %23, label %24, label %25

24:                                               ; preds = %16
  store ptr null, ptr %3, align 8
  store i32 1, ptr %7, align 4
  br label %34

25:                                               ; preds = %16
  %26 = load ptr, ptr %4, align 8, !tbaa !3
  %27 = getelementptr inbounds nuw %struct.pmix_pointer_array_t, ptr %26, i32 0, i32 7
  %28 = load ptr, ptr %27, align 8, !tbaa !25
  %29 = load i32, ptr %5, align 4, !tbaa !9
  %30 = sext i32 %29 to i64
  %31 = getelementptr inbounds ptr, ptr %28, i64 %30
  %32 = load ptr, ptr %31, align 8, !tbaa !8
  store ptr %32, ptr %6, align 8, !tbaa !8
  %33 = load ptr, ptr %6, align 8, !tbaa !8
  store ptr %33, ptr %3, align 8
  store i32 1, ptr %7, align 4
  br label %34

34:                                               ; preds = %25, %24
  call void @llvm.lifetime.end.p0(i64 8, ptr %6) #9
  %35 = load ptr, ptr %3, align 8
  ret ptr %35
}

; Function Attrs: nounwind uwtable
define i32 @pmix_bfrops_base_pack_devdist(ptr noundef %0, ptr noundef %1, ptr noundef %2, i32 noundef %3, i16 noundef zeroext %4) #0 {
  %6 = alloca i32, align 4
  %7 = alloca ptr, align 8
  %8 = alloca ptr, align 8
  %9 = alloca ptr, align 8
  %10 = alloca i32, align 4
  %11 = alloca i16, align 2
  %12 = alloca ptr, align 8
  %13 = alloca i32, align 4
  %14 = alloca i32, align 4
  %15 = alloca ptr, align 8
  %16 = alloca i32, align 4
  %17 = alloca ptr, align 8
  %18 = alloca ptr, align 8
  %19 = alloca ptr, align 8
  %20 = alloca ptr, align 8
  store ptr %0, ptr %7, align 8, !tbaa !3
  store ptr %1, ptr %8, align 8, !tbaa !8
  store ptr %2, ptr %9, align 8, !tbaa !8
  store i32 %3, ptr %10, align 4, !tbaa !9
  store i16 %4, ptr %11, align 2, !tbaa !11
  call void @llvm.lifetime.start.p0(i64 8, ptr %12) #9
  %21 = load ptr, ptr %9, align 8, !tbaa !8
  store ptr %21, ptr %12, align 8, !tbaa !161
  call void @llvm.lifetime.start.p0(i64 4, ptr %13) #9
  call void @llvm.lifetime.start.p0(i64 4, ptr %14) #9
  store i32 0, ptr %13, align 4, !tbaa !9
  br label %22

22:                                               ; preds = %157, %5
  %23 = load i32, ptr %13, align 4, !tbaa !9
  %24 = load i32, ptr %10, align 4, !tbaa !9
  %25 = icmp slt i32 %23, %24
  br i1 %25, label %26, label %160

26:                                               ; preds = %22
  br label %27

27:                                               ; preds = %26
  call void @llvm.lifetime.start.p0(i64 8, ptr %15) #9
  %28 = load ptr, ptr %7, align 8, !tbaa !3
  %29 = call ptr @pmix_pointer_array_get_item(ptr noundef %28, i32 noundef 3)
  store ptr %29, ptr %15, align 8, !tbaa !8
  %30 = load ptr, ptr %15, align 8, !tbaa !8
  %31 = icmp eq ptr null, %30
  br i1 %31, label %32, label %33

32:                                               ; preds = %27
  store i32 -16, ptr %14, align 4, !tbaa !9
  br label %45

33:                                               ; preds = %27
  %34 = load ptr, ptr %15, align 8, !tbaa !8
  %35 = getelementptr inbounds nuw %struct.pmix_bfrop_type_info_t, ptr %34, i32 0, i32 3
  %36 = load ptr, ptr %35, align 8, !tbaa !20
  %37 = load ptr, ptr %7, align 8, !tbaa !3
  %38 = load ptr, ptr %8, align 8, !tbaa !8
  %39 = load ptr, ptr %12, align 8, !tbaa !161
  %40 = load i32, ptr %13, align 4, !tbaa !9
  %41 = sext i32 %40 to i64
  %42 = getelementptr inbounds %struct.pmix_device_distance, ptr %39, i64 %41
  %43 = getelementptr inbounds nuw %struct.pmix_device_distance, ptr %42, i32 0, i32 0
  %44 = call i32 %36(ptr noundef %37, ptr noundef %38, ptr noundef %43, i32 noundef 1, i16 noundef zeroext 3)
  store i32 %44, ptr %14, align 4, !tbaa !9
  br label %45

45:                                               ; preds = %33, %32
  call void @llvm.lifetime.end.p0(i64 8, ptr %15) #9
  br label %46

46:                                               ; preds = %45
  br label %47

47:                                               ; preds = %46
  %48 = load i32, ptr %14, align 4, !tbaa !9
  %49 = icmp ne i32 0, %48
  br i1 %49, label %50, label %52

50:                                               ; preds = %47
  %51 = load i32, ptr %14, align 4, !tbaa !9
  store i32 %51, ptr %6, align 4
  store i32 1, ptr %16, align 4
  br label %161

52:                                               ; preds = %47
  br label %53

53:                                               ; preds = %52
  call void @llvm.lifetime.start.p0(i64 8, ptr %17) #9
  %54 = load ptr, ptr %7, align 8, !tbaa !3
  %55 = call ptr @pmix_pointer_array_get_item(ptr noundef %54, i32 noundef 3)
  store ptr %55, ptr %17, align 8, !tbaa !8
  %56 = load ptr, ptr %17, align 8, !tbaa !8
  %57 = icmp eq ptr null, %56
  br i1 %57, label %58, label %59

58:                                               ; preds = %53
  store i32 -16, ptr %14, align 4, !tbaa !9
  br label %71

59:                                               ; preds = %53
  %60 = load ptr, ptr %17, align 8, !tbaa !8
  %61 = getelementptr inbounds nuw %struct.pmix_bfrop_type_info_t, ptr %60, i32 0, i32 3
  %62 = load ptr, ptr %61, align 8, !tbaa !20
  %63 = load ptr, ptr %7, align 8, !tbaa !3
  %64 = load ptr, ptr %8, align 8, !tbaa !8
  %65 = load ptr, ptr %12, align 8, !tbaa !161
  %66 = load i32, ptr %13, align 4, !tbaa !9
  %67 = sext i32 %66 to i64
  %68 = getelementptr inbounds %struct.pmix_device_distance, ptr %65, i64 %67
  %69 = getelementptr inbounds nuw %struct.pmix_device_distance, ptr %68, i32 0, i32 1
  %70 = call i32 %62(ptr noundef %63, ptr noundef %64, ptr noundef %69, i32 noundef 1, i16 noundef zeroext 3)
  store i32 %70, ptr %14, align 4, !tbaa !9
  br label %71

71:                                               ; preds = %59, %58
  call void @llvm.lifetime.end.p0(i64 8, ptr %17) #9
  br label %72

72:                                               ; preds = %71
  br label %73

73:                                               ; preds = %72
  %74 = load i32, ptr %14, align 4, !tbaa !9
  %75 = icmp ne i32 0, %74
  br i1 %75, label %76, label %78

76:                                               ; preds = %73
  %77 = load i32, ptr %14, align 4, !tbaa !9
  store i32 %77, ptr %6, align 4
  store i32 1, ptr %16, align 4
  br label %161

78:                                               ; preds = %73
  br label %79

79:                                               ; preds = %78
  call void @llvm.lifetime.start.p0(i64 8, ptr %18) #9
  %80 = load ptr, ptr %7, align 8, !tbaa !3
  %81 = call ptr @pmix_pointer_array_get_item(ptr noundef %80, i32 noundef 57)
  store ptr %81, ptr %18, align 8, !tbaa !8
  %82 = load ptr, ptr %18, align 8, !tbaa !8
  %83 = icmp eq ptr null, %82
  br i1 %83, label %84, label %85

84:                                               ; preds = %79
  store i32 -16, ptr %14, align 4, !tbaa !9
  br label %97

85:                                               ; preds = %79
  %86 = load ptr, ptr %18, align 8, !tbaa !8
  %87 = getelementptr inbounds nuw %struct.pmix_bfrop_type_info_t, ptr %86, i32 0, i32 3
  %88 = load ptr, ptr %87, align 8, !tbaa !20
  %89 = load ptr, ptr %7, align 8, !tbaa !3
  %90 = load ptr, ptr %8, align 8, !tbaa !8
  %91 = load ptr, ptr %12, align 8, !tbaa !161
  %92 = load i32, ptr %13, align 4, !tbaa !9
  %93 = sext i32 %92 to i64
  %94 = getelementptr inbounds %struct.pmix_device_distance, ptr %91, i64 %93
  %95 = getelementptr inbounds nuw %struct.pmix_device_distance, ptr %94, i32 0, i32 2
  %96 = call i32 %88(ptr noundef %89, ptr noundef %90, ptr noundef %95, i32 noundef 1, i16 noundef zeroext 57)
  store i32 %96, ptr %14, align 4, !tbaa !9
  br label %97

97:                                               ; preds = %85, %84
  call void @llvm.lifetime.end.p0(i64 8, ptr %18) #9
  br label %98

98:                                               ; preds = %97
  br label %99

99:                                               ; preds = %98
  %100 = load i32, ptr %14, align 4, !tbaa !9
  %101 = icmp ne i32 0, %100
  br i1 %101, label %102, label %104

102:                                              ; preds = %99
  %103 = load i32, ptr %14, align 4, !tbaa !9
  store i32 %103, ptr %6, align 4
  store i32 1, ptr %16, align 4
  br label %161

104:                                              ; preds = %99
  br label %105

105:                                              ; preds = %104
  call void @llvm.lifetime.start.p0(i64 8, ptr %19) #9
  %106 = load ptr, ptr %7, align 8, !tbaa !3
  %107 = call ptr @pmix_pointer_array_get_item(ptr noundef %106, i32 noundef 13)
  store ptr %107, ptr %19, align 8, !tbaa !8
  %108 = load ptr, ptr %19, align 8, !tbaa !8
  %109 = icmp eq ptr null, %108
  br i1 %109, label %110, label %111

110:                                              ; preds = %105
  store i32 -16, ptr %14, align 4, !tbaa !9
  br label %123

111:                                              ; preds = %105
  %112 = load ptr, ptr %19, align 8, !tbaa !8
  %113 = getelementptr inbounds nuw %struct.pmix_bfrop_type_info_t, ptr %112, i32 0, i32 3
  %114 = load ptr, ptr %113, align 8, !tbaa !20
  %115 = load ptr, ptr %7, align 8, !tbaa !3
  %116 = load ptr, ptr %8, align 8, !tbaa !8
  %117 = load ptr, ptr %12, align 8, !tbaa !161
  %118 = load i32, ptr %13, align 4, !tbaa !9
  %119 = sext i32 %118 to i64
  %120 = getelementptr inbounds %struct.pmix_device_distance, ptr %117, i64 %119
  %121 = getelementptr inbounds nuw %struct.pmix_device_distance, ptr %120, i32 0, i32 3
  %122 = call i32 %114(ptr noundef %115, ptr noundef %116, ptr noundef %121, i32 noundef 1, i16 noundef zeroext 13)
  store i32 %122, ptr %14, align 4, !tbaa !9
  br label %123

123:                                              ; preds = %111, %110
  call void @llvm.lifetime.end.p0(i64 8, ptr %19) #9
  br label %124

124:                                              ; preds = %123
  br label %125

125:                                              ; preds = %124
  %126 = load i32, ptr %14, align 4, !tbaa !9
  %127 = icmp ne i32 0, %126
  br i1 %127, label %128, label %130

128:                                              ; preds = %125
  %129 = load i32, ptr %14, align 4, !tbaa !9
  store i32 %129, ptr %6, align 4
  store i32 1, ptr %16, align 4
  br label %161

130:                                              ; preds = %125
  br label %131

131:                                              ; preds = %130
  call void @llvm.lifetime.start.p0(i64 8, ptr %20) #9
  %132 = load ptr, ptr %7, align 8, !tbaa !3
  %133 = call ptr @pmix_pointer_array_get_item(ptr noundef %132, i32 noundef 13)
  store ptr %133, ptr %20, align 8, !tbaa !8
  %134 = load ptr, ptr %20, align 8, !tbaa !8
  %135 = icmp eq ptr null, %134
  br i1 %135, label %136, label %137

136:                                              ; preds = %131
  store i32 -16, ptr %14, align 4, !tbaa !9
  br label %149

137:                                              ; preds = %131
  %138 = load ptr, ptr %20, align 8, !tbaa !8
  %139 = getelementptr inbounds nuw %struct.pmix_bfrop_type_info_t, ptr %138, i32 0, i32 3
  %140 = load ptr, ptr %139, align 8, !tbaa !20
  %141 = load ptr, ptr %7, align 8, !tbaa !3
  %142 = load ptr, ptr %8, align 8, !tbaa !8
  %143 = load ptr, ptr %12, align 8, !tbaa !161
  %144 = load i32, ptr %13, align 4, !tbaa !9
  %145 = sext i32 %144 to i64
  %146 = getelementptr inbounds %struct.pmix_device_distance, ptr %143, i64 %145
  %147 = getelementptr inbounds nuw %struct.pmix_device_distance, ptr %146, i32 0, i32 4
  %148 = call i32 %140(ptr noundef %141, ptr noundef %142, ptr noundef %147, i32 noundef 1, i16 noundef zeroext 13)
  store i32 %148, ptr %14, align 4, !tbaa !9
  br label %149

149:                                              ; preds = %137, %136
  call void @llvm.lifetime.end.p0(i64 8, ptr %20) #9
  br label %150

150:                                              ; preds = %149
  br label %151

151:                                              ; preds = %150
  %152 = load i32, ptr %14, align 4, !tbaa !9
  %153 = icmp ne i32 0, %152
  br i1 %153, label %154, label %156

154:                                              ; preds = %151
  %155 = load i32, ptr %14, align 4, !tbaa !9
  store i32 %155, ptr %6, align 4
  store i32 1, ptr %16, align 4
  br label %161

156:                                              ; preds = %151
  br label %157

157:                                              ; preds = %156
  %158 = load i32, ptr %13, align 4, !tbaa !9
  %159 = add nsw i32 %158, 1
  store i32 %159, ptr %13, align 4, !tbaa !9
  br label %22, !llvm.loop !163

160:                                              ; preds = %22
  store i32 0, ptr %6, align 4
  store i32 1, ptr %16, align 4
  br label %161

161:                                              ; preds = %160, %154, %128, %102, %76, %50
  call void @llvm.lifetime.end.p0(i64 4, ptr %14) #9
  call void @llvm.lifetime.end.p0(i64 4, ptr %13) #9
  call void @llvm.lifetime.end.p0(i64 8, ptr %12) #9
  %162 = load i32, ptr %6, align 4
  ret i32 %162
}