; Function Attrs: nounwind uwtable
define i32 @pmix_bfrops_base_pack_devdist(ptr noundef %0, ptr noundef %1, ptr noundef %2, i32 noundef %3, i16 noundef zeroext %4) local_unnamed_addr #0 {
  %6 = getelementptr inbounds nuw i8, ptr %0, i64 128
  %7 = getelementptr inbounds nuw i8, ptr %0, i64 152
  %8 = icmp sgt i32 %3, 0
  br i1 %8, label %.lr.ph.preheader, label %.thread

.lr.ph.preheader:                                 ; preds = %5
  %wide.trip.count = zext nneg i32 %3 to i64
  br label %.lr.ph

9:                                                ; preds = %59
  %indvars.iv.next = add nuw nsw i64 %indvars.iv, 1
  %exitcond.not = icmp eq i64 %indvars.iv.next, %wide.trip.count
  br i1 %exitcond.not, label %.thread, label %.lr.ph, !llvm.loop !122

.lr.ph:                                           ; preds = %.lr.ph.preheader, %9
  %indvars.iv = phi i64 [ 0, %.lr.ph.preheader ], [ %indvars.iv.next, %9 ]
  %10 = load i32, ptr %6, align 8, !tbaa !15
  %.not.i = icmp sgt i32 %10, 3
  br i1 %.not.i, label %pmix_pointer_array_get_item.exit, label %.thread, !prof !18

pmix_pointer_array_get_item.exit:                 ; preds = %.lr.ph
  %11 = load ptr, ptr %7, align 8, !tbaa !19
  %12 = getelementptr inbounds nuw i8, ptr %11, i64 24
  %13 = load ptr, ptr %12, align 8, !tbaa !20
  %14 = icmp eq ptr %13, null
  br i1 %14, label %.thread, label %15

15:                                               ; preds = %pmix_pointer_array_get_item.exit
  %16 = getelementptr inbounds nuw i8, ptr %13, i64 136
  %17 = load ptr, ptr %16, align 8, !tbaa !21
  %18 = getelementptr inbounds nuw %struct.pmix_device_distance, ptr %2, i64 %indvars.iv
  %19 = tail call i32 %17(ptr noundef nonnull %0, ptr noundef %1, ptr noundef %18, i32 noundef 1, i16 noundef zeroext 3) #8
  %.not = icmp eq i32 %19, 0
  br i1 %.not, label %20, label %.thread

20:                                               ; preds = %15
  %21 = load i32, ptr %6, align 8, !tbaa !15
  %.not.i60 = icmp sgt i32 %21, 3
  br i1 %.not.i60, label %pmix_pointer_array_get_item.exit62, label %.thread, !prof !18

pmix_pointer_array_get_item.exit62:               ; preds = %20
  %22 = load ptr, ptr %7, align 8, !tbaa !19
  %23 = getelementptr inbounds nuw i8, ptr %22, i64 24
  %24 = load ptr, ptr %23, align 8, !tbaa !20
  %25 = icmp eq ptr %24, null
  br i1 %25, label %.thread, label %26

26:                                               ; preds = %pmix_pointer_array_get_item.exit62
  %27 = getelementptr inbounds nuw i8, ptr %24, i64 136
  %28 = load ptr, ptr %27, align 8, !tbaa !21
  %29 = getelementptr inbounds nuw %struct.pmix_device_distance, ptr %2, i64 %indvars.iv, i32 1
  %30 = tail call i32 %28(ptr noundef nonnull %0, ptr noundef %1, ptr noundef nonnull %29, i32 noundef 1, i16 noundef zeroext 3) #8
  %.not56 = icmp eq i32 %30, 0
  br i1 %.not56, label %31, label %.thread

31:                                               ; preds = %26
  %32 = load i32, ptr %6, align 8, !tbaa !15
  %.not.i63 = icmp sgt i32 %32, 57
  br i1 %.not.i63, label %pmix_pointer_array_get_item.exit65, label %.thread, !prof !18

pmix_pointer_array_get_item.exit65:               ; preds = %31
  %33 = load ptr, ptr %7, align 8, !tbaa !19
  %34 = getelementptr inbounds nuw i8, ptr %33, i64 456
  %35 = load ptr, ptr %34, align 8, !tbaa !20
  %36 = icmp eq ptr %35, null
  br i1 %36, label %.thread, label %37

37:                                               ; preds = %pmix_pointer_array_get_item.exit65
  %38 = getelementptr inbounds nuw i8, ptr %35, i64 136
  %39 = load ptr, ptr %38, align 8, !tbaa !21
  %40 = getelementptr inbounds nuw %struct.pmix_device_distance, ptr %2, i64 %indvars.iv, i32 2
  %41 = tail call i32 %39(ptr noundef nonnull %0, ptr noundef %1, ptr noundef nonnull %40, i32 noundef 1, i16 noundef zeroext 57) #8
  %.not57 = icmp eq i32 %41, 0
  br i1 %.not57, label %42, label %.thread

42:                                               ; preds = %37
  %43 = load i32, ptr %6, align 8, !tbaa !15
  %.not.i66 = icmp sgt i32 %43, 13
  br i1 %.not.i66, label %pmix_pointer_array_get_item.exit68, label %.thread, !prof !18

pmix_pointer_array_get_item.exit68:               ; preds = %42
  %44 = load ptr, ptr %7, align 8, !tbaa !19
  %45 = getelementptr inbounds nuw i8, ptr %44, i64 104
  %46 = load ptr, ptr %45, align 8, !tbaa !20
  %47 = icmp eq ptr %46, null
  br i1 %47, label %.thread, label %48

48:                                               ; preds = %pmix_pointer_array_get_item.exit68
  %49 = getelementptr inbounds nuw i8, ptr %46, i64 136
  %50 = load ptr, ptr %49, align 8, !tbaa !21
  %51 = getelementptr inbounds nuw %struct.pmix_device_distance, ptr %2, i64 %indvars.iv, i32 3
  %52 = tail call i32 %50(ptr noundef nonnull %0, ptr noundef %1, ptr noundef nonnull %51, i32 noundef 1, i16 noundef zeroext 13) #8
  %.not58 = icmp eq i32 %52, 0
  br i1 %.not58, label %53, label %.thread

53:                                               ; preds = %48
  %54 = load i32, ptr %6, align 8, !tbaa !15
  %.not.i69 = icmp sgt i32 %54, 13
  br i1 %.not.i69, label %pmix_pointer_array_get_item.exit71, label %.thread, !prof !18

pmix_pointer_array_get_item.exit71:               ; preds = %53
  %55 = load ptr, ptr %7, align 8, !tbaa !19
  %56 = getelementptr inbounds nuw i8, ptr %55, i64 104
  %57 = load ptr, ptr %56, align 8, !tbaa !20
  %58 = icmp eq ptr %57, null
  br i1 %58, label %.thread, label %59

59:                                               ; preds = %pmix_pointer_array_get_item.exit71
  %60 = getelementptr inbounds nuw i8, ptr %57, i64 136
  %61 = load ptr, ptr %60, align 8, !tbaa !21
  %62 = getelementptr inbounds nuw %struct.pmix_device_distance, ptr %2, i64 %indvars.iv, i32 4
  %63 = tail call i32 %61(ptr noundef nonnull %0, ptr noundef %1, ptr noundef nonnull %62, i32 noundef 1, i16 noundef zeroext 13) #8
  %.not59 = icmp eq i32 %63, 0
  br i1 %.not59, label %9, label %.thread

.thread:                                          ; preds = %15, %26, %37, %48, %59, %9, %pmix_pointer_array_get_item.exit, %.lr.ph, %pmix_pointer_array_get_item.exit62, %20, %pmix_pointer_array_get_item.exit65, %31, %pmix_pointer_array_get_item.exit68, %42, %pmix_pointer_array_get_item.exit71, %53, %5
  %.0 = phi i32 [ 0, %5 ], [ -16, %53 ], [ -16, %pmix_pointer_array_get_item.exit71 ], [ -16, %42 ], [ -16, %pmix_pointer_array_get_item.exit68 ], [ -16, %31 ], [ -16, %pmix_pointer_array_get_item.exit65 ], [ -16, %20 ], [ -16, %pmix_pointer_array_get_item.exit62 ], [ -16, %.lr.ph ], [ -16, %pmix_pointer_array_get_item.exit ], [ 0, %9 ], [ %63, %59 ], [ %52, %48 ], [ %41, %37 ], [ %30, %26 ], [ %19, %15 ]
  ret i32 %.0
}